target datalayout = "e-m:e-p270:32:32-p271:32:32-p272:64:64-i64:64-i128:128-f80:128-n8:16:32:64-S128"
target triple = "x86_64-pc-linux-gnu"

; Function Attrs: nounwind uwtable
define i32 @XzBlock_ReadHeader(ptr noundef %0, ptr noundef %1, ptr noundef %2, ptr noundef %3) #0 {
  %5 = alloca i32, align 4
  %6 = alloca ptr, align 8
  %7 = alloca ptr, align 8
  %8 = alloca ptr, align 8
  %9 = alloca ptr, align 8
  %10 = alloca [1024 x i8], align 16
  %11 = alloca i32, align 4
  %12 = alloca i32, align 4
  %13 = alloca i32, align 4
  store ptr %0, ptr %6, align 8
  store ptr %1, ptr %7, align 8
  store ptr %2, ptr %8, align 8
  store ptr %3, ptr %9, align 8
  %14 = load ptr, ptr %9, align 8
  store i32 0, ptr %14, align 4
  %15 = load ptr, ptr %7, align 8
  %16 = getelementptr inbounds [1024 x i8], ptr %10, i64 0, i64 0
  %17 = call i32 @SeqInStream_ReadByte(ptr noundef %15, ptr noundef %16)
  store i32 %17, ptr %12, align 4
  %18 = load i32, ptr %12, align 4
  %19 = icmp ne i32 %18, 0
  br i1 %19, label %20, label %22

20:                                               ; preds = %4
  %21 = load i32, ptr %12, align 4
  store i32 %21, ptr %5, align 4
  br label %52

22:                                               ; preds = %4
  %23 = getelementptr inbounds [1024 x i8], ptr %10, i64 0, i64 0
  %24 = load i8, ptr %23, align 16
  %25 = zext i8 %24 to i32
  %26 = shl i32 %25, 2
  %27 = add i32 %26, 4
  store i32 %27, ptr %11, align 4
  %28 = load i32, ptr %11, align 4
  %29 = icmp eq i32 %28, 0
  br i1 %29, label %30, label %33

30:                                               ; preds = %22
  %31 = load ptr, ptr %9, align 8
  store i32 1, ptr %31, align 4
  %32 = load ptr, ptr %8, align 8
  store i32 1, ptr %32, align 4
  store i32 0, ptr %5, align 4
  br label %52

33:                                               ; preds = %22
  %34 = load ptr, ptr %8, align 8
  store i32 0, ptr %34, align 4
  %35 = load i32, ptr %11, align 4
  %36 = load ptr, ptr %9, align 8
  store i32 %35, ptr %36, align 4
  %37 = load ptr, ptr %7, align 8
  %38 = getelementptr inbounds [1024 x i8], ptr %10, i64 0, i64 0
  %39 = getelementptr inbounds i8, ptr %38, i64 1
  %40 = load i32, ptr %11, align 4
  %41 = sub i32 %40, 1
  %42 = zext i32 %41 to i64
  %43 = call i32 @SeqInStream_Read(ptr noundef %37, ptr noundef %39, i64 noundef %42)
  store i32 %43, ptr %13, align 4
  %44 = load i32, ptr %13, align 4
  %45 = icmp ne i32 %44, 0
  br i1 %45, label %46, label %48

46:                                               ; preds = %33
  %47 = load i32, ptr %13, align 4
  store i32 %47, ptr %5, align 4
  br label %52

48:                                               ; preds = %33
  %49 = load ptr, ptr %6, align 8
  %50 = getelementptr inbounds [1024 x i8], ptr %10, i64 0, i64 0
  %51 = call i32 @XzBlock_Parse(ptr noundef %49, ptr noundef %50)
  store i32 %51, ptr %5, align 4
  br label %52

52:                                               ; preds = %48, %46, %30, %20
  %53 = load i32, ptr %5, align 4
  ret i32 %53
}