; Function Attrs: nounwind uwtable
define i32 @XzBlock_ReadHeader(ptr noundef %0, ptr noundef %1, ptr noundef writeonly captures(none) %2, ptr noundef writeonly captures(none) initializes((0, 4)) %3) local_unnamed_addr #0 {
  %5 = alloca [1024 x i8], align 16
  store i32 0, ptr %3, align 4
  %6 = call i32 @SeqInStream_ReadByte(ptr noundef %1, ptr noundef nonnull %5) #9
  %.not = icmp eq i32 %6, 0
  br i1 %.not, label %7, label %18

7:                                                ; preds = %4
  %8 = load i8, ptr %5, align 16
  %9 = zext i8 %8 to i32
  %10 = shl nuw nsw i32 %9, 2
  %11 = add nuw nsw i32 %10, 4
  store i32 0, ptr %2, align 4
  store i32 %11, ptr %3, align 4
  %12 = getelementptr inbounds nuw i8, ptr %5, i64 1
  %13 = or disjoint i32 %10, 3
  %14 = zext nneg i32 %13 to i64
  %15 = call i32 @SeqInStream_Read(ptr noundef %1, ptr noundef nonnull %12, i64 noundef %14) #9
  %.not17 = icmp eq i32 %15, 0
  br i1 %.not17, label %16, label %18

16:                                               ; preds = %7
  %17 = call i32 @XzBlock_Parse(ptr noundef %0, ptr noundef nonnull %5) #9
  br label %18

18:                                               ; preds = %7, %4, %16
  %.0 = phi i32 [ %17, %16 ], [ %6, %4 ], [ %15, %7 ]
  ret i32 %.0
}